target datalayout = "e-m:e-p270:32:32-p271:32:32-p272:64:64-i64:64-i128:128-f80:128-n8:16:32:64-S128"
target triple = "x86_64-pc-linux-gnu"

%struct.OpusPsyContext = type { ptr, ptr, ptr, ptr, [2 x [21 x %struct.OpusBandExcitation]], [2 x [21 x %struct.FFBesselFilter]], [2 x [21 x %struct.FFBesselFilter]], [146 x ptr], i32, [4 x ptr], [4 x ptr], [4 x ptr], i32, [12 x i8], [2048 x float], float, i64, i64, %struct.OpusPacketInfo, i32, i32, i32, float, ptr, i32, [12 x i8] }
%struct.OpusBandExcitation = type { float, float, float }
%struct.FFBesselFilter = type { [3 x float], [2 x float], [3 x float], [3 x float] }
%struct.OpusPacketInfo = type { i32, i32, i32, i32 }
%struct.OpusPsyStep = type { i32, i32, [2 x [21 x float]], [2 x [21 x float]], [21 x float], [2 x [21 x float]], float, [2 x [21 x ptr]], [2 x [960 x float]] }
%struct.AVCodecContext = type { ptr, i32, i32, ptr, i32, i32, ptr, ptr, ptr, i64, i32, i32, ptr, i32, %struct.AVRational, %struct.AVRational, %struct.AVRational, i32, i32, i32, i32, i32, %struct.AVRational, i32, i32, i32, i32, i32, i32, i32, i32, i32, i32, i32, ptr, ptr, i32, float, float, float, float, float, float, float, float, float, i32, i32, i32, i32, i32, i32, i32, i32, i32, i32, i32, i32, ptr, ptr, ptr, i32, i32, i32, i32, i32, i32, i32, i32, i32, i32, %struct.AVChannelLayout, i32, i32, i32, i32, i32, i32, i32, i32, ptr, i32, i32, i32, float, float, i32, i32, i32, i32, i32, ptr, i64, i64, float, float, i32, i32, ptr, ptr, i32, i32, i32, i32, i32, ptr, ptr, ptr, ptr, i32, i32, [8 x i64], i32, i32, i32, i32, i32, i32, i32, ptr, ptr, i32, i32, i32, i32, i32, i32, i32, i32, i32, i32, ptr, ptr, i32, i32, ptr, ptr, ptr, ptr, i32, i32, i64, i32, i32, i64, ptr, i64, ptr, i32, ptr, i32 }
%struct.AVRational = type { i32, i32 }
%struct.AVChannelLayout = type { i32, i32, %union.anon, ptr }
%union.anon = type { i64 }
%struct.CeltFrame = type { ptr, [4 x ptr], [4 x ptr], ptr, [2 x %struct.CeltBlock], ptr, %struct.OpusDSP, i32, i32, i32, i32, i32, i32, i32, i32, i32, i32, i32, i32, [21 x i32], i32, i32, i32, i32, i32, i32, i32, i32, i32, i32, i32, i32, i32, float, i32, i32, i32, [21 x i32], [21 x i32], [21 x i32], [21 x i32], [21 x i32], [12 x i8] }
%struct.CeltBlock = type { [21 x float], [21 x float], [21 x float], [2 x [21 x float]], [21 x i8], [7 x i8], [2048 x float], [960 x float], [128 x float], [960 x float], i32, [3 x float], i32, [3 x float], i32, [3 x float], float, [12 x i8] }
%struct.OpusDSP = type { ptr, ptr }

@ff_celt_band_end = external hidden constant [0 x i8], align 1

; Function Attrs: nounwind uwtable
define void @ff_opus_psy_celt_frame_init(ptr noundef %0, ptr noundef %1, i32 noundef %2) #0 {
  %4 = alloca ptr, align 8
  %5 = alloca ptr, align 8
  %6 = alloca i32, align 4
  %7 = alloca i32, align 4
  %8 = alloca i32, align 4
  %9 = alloca i32, align 4
  %10 = alloca i32, align 4
  %11 = alloca i32, align 4
  %12 = alloca i32, align 4
  %13 = alloca i32, align 4
  store ptr %0, ptr %4, align 8, !tbaa !4
  store ptr %1, ptr %5, align 8, !tbaa !105
  store i32 %2, ptr %6, align 4, !tbaa !26
  call void @llvm.lifetime.start.p0(i64 4, ptr %7) #11
  call void @llvm.lifetime.start.p0(i64 4, ptr %8) #11
  store i32 0, ptr %8, align 4, !tbaa !26
  call void @llvm.lifetime.start.p0(i64 4, ptr %9) #11
  store i32 0, ptr %9, align 4, !tbaa !26
  call void @llvm.lifetime.start.p0(i64 4, ptr %10) #11
  %14 = load ptr, ptr %4, align 8, !tbaa !4
  %15 = getelementptr inbounds nuw %struct.OpusPsyContext, ptr %14, i32 0, i32 18
  %16 = getelementptr inbounds nuw %struct.OpusPacketInfo, ptr %15, i32 0, i32 2
  %17 = load i32, ptr %16, align 8, !tbaa !36
  %18 = shl i32 1, %17
  store i32 %18, ptr %10, align 4, !tbaa !26
  call void @llvm.lifetime.start.p0(i64 4, ptr %11) #11
  %19 = load i32, ptr %10, align 4, !tbaa !26
  %20 = load i32, ptr %6, align 4, !tbaa !26
  %21 = mul nsw i32 %19, %20
  store i32 %21, ptr %11, align 4, !tbaa !26
  call void @llvm.lifetime.start.p0(i64 4, ptr %12) #11
  store i32 1, ptr %12, align 4, !tbaa !26
  %22 = load ptr, ptr %4, align 8, !tbaa !4
  %23 = getelementptr inbounds nuw %struct.OpusPsyContext, ptr %22, i32 0, i32 18
  %24 = getelementptr inbounds nuw %struct.OpusPacketInfo, ptr %23, i32 0, i32 0
  %25 = load i32, ptr %24, align 8, !tbaa !38
  %26 = icmp eq i32 %25, 1
  %27 = select i1 %26, i32 17, i32 0
  %28 = load ptr, ptr %5, align 8, !tbaa !105
  %29 = getelementptr inbounds nuw %struct.CeltFrame, ptr %28, i32 0, i32 11
  store i32 %27, ptr %29, align 8, !tbaa !107
  %30 = load ptr, ptr %4, align 8, !tbaa !4
  %31 = getelementptr inbounds nuw %struct.OpusPsyContext, ptr %30, i32 0, i32 18
  %32 = getelementptr inbounds nuw %struct.OpusPacketInfo, ptr %31, i32 0, i32 1
  %33 = load i32, ptr %32, align 4, !tbaa !40
  %34 = zext i32 %33 to i64
  %35 = getelementptr inbounds nuw [0 x i8], ptr @ff_celt_band_end, i64 0, i64 %34
  %36 = load i8, ptr %35, align 1, !tbaa !80
  %37 = zext i8 %36 to i32
  %38 = load ptr, ptr %5, align 8, !tbaa !105
  %39 = getelementptr inbounds nuw %struct.CeltFrame, ptr %38, i32 0, i32 12
  store i32 %37, ptr %39, align 4, !tbaa !111
  %40 = load ptr, ptr %4, align 8, !tbaa !4
  %41 = getelementptr inbounds nuw %struct.OpusPsyContext, ptr %40, i32 0, i32 0
  %42 = load ptr, ptr %41, align 16, !tbaa !43
  %43 = getelementptr inbounds nuw %struct.AVCodecContext, ptr %42, i32 0, i32 71
  %44 = getelementptr inbounds nuw %struct.AVChannelLayout, ptr %43, i32 0, i32 1
  %45 = load i32, ptr %44, align 4, !tbaa !44
  %46 = load ptr, ptr %5, align 8, !tbaa !105
  %47 = getelementptr inbounds nuw %struct.CeltFrame, ptr %46, i32 0, i32 7
  store i32 %45, ptr %47, align 8, !tbaa !112
  %48 = load ptr, ptr %4, align 8, !tbaa !4
  %49 = getelementptr inbounds nuw %struct.OpusPsyContext, ptr %48, i32 0, i32 18
  %50 = getelementptr inbounds nuw %struct.OpusPacketInfo, ptr %49, i32 0, i32 2
  %51 = load i32, ptr %50, align 8, !tbaa !36
  %52 = load ptr, ptr %5, align 8, !tbaa !105
  %53 = getelementptr inbounds nuw %struct.CeltFrame, ptr %52, i32 0, i32 10
  store i32 %51, ptr %53, align 4, !tbaa !113
  store i32 0, ptr %7, align 4, !tbaa !26
  br label %54

54:                                               ; preds = %79, %3
  %55 = load i32, ptr %7, align 4, !tbaa !26
  %56 = load ptr, ptr %5, align 8, !tbaa !105
  %57 = getelementptr inbounds nuw %struct.CeltFrame, ptr %56, i32 0, i32 10
  %58 = load i32, ptr %57, align 4, !tbaa !113
  %59 = shl i32 1, %58
  %60 = icmp slt i32 %55, %59
  br i1 %60, label %61, label %82

61:                                               ; preds = %54
  %62 = load ptr, ptr %4, align 8, !tbaa !4
  %63 = getelementptr inbounds nuw %struct.OpusPsyContext, ptr %62, i32 0, i32 7
  %64 = load i32, ptr %6, align 4, !tbaa !26
  %65 = load ptr, ptr %5, align 8, !tbaa !105
  %66 = getelementptr inbounds nuw %struct.CeltFrame, ptr %65, i32 0, i32 10
  %67 = load i32, ptr %66, align 4, !tbaa !113
  %68 = shl i32 1, %67
  %69 = mul nsw i32 %64, %68
  %70 = load i32, ptr %7, align 4, !tbaa !26
  %71 = add nsw i32 %69, %70
  %72 = sext i32 %71 to i64
  %73 = getelementptr inbounds [146 x ptr], ptr %63, i64 0, i64 %72
  %74 = load ptr, ptr %73, align 8, !tbaa !28
  %75 = getelementptr inbounds nuw %struct.OpusPsyStep, ptr %74, i32 0, i32 1
  %76 = load i32, ptr %75, align 4, !tbaa !87
  %77 = load i32, ptr %12, align 4, !tbaa !26
  %78 = and i32 %77, %76
  store i32 %78, ptr %12, align 4, !tbaa !26
  br label %79

79:                                               ; preds = %61
  %80 = load i32, ptr %7, align 4, !tbaa !26
  %81 = add nsw i32 %80, 1
  store i32 %81, ptr %7, align 4, !tbaa !26
  br label %54, !llvm.loop !114

82:                                               ; preds = %54
  %83 = load i32, ptr %12, align 4, !tbaa !26
  %84 = load ptr, ptr %5, align 8, !tbaa !105
  %85 = getelementptr inbounds nuw %struct.CeltFrame, ptr %84, i32 0, i32 22
  store i32 %83, ptr %85, align 4, !tbaa !115
  %86 = load ptr, ptr %5, align 8, !tbaa !105
  %87 = getelementptr inbounds nuw %struct.CeltFrame, ptr %86, i32 0, i32 22
  %88 = load i32, ptr %87, align 4, !tbaa !115
  %89 = icmp ne i32 %88, 0
  br i1 %89, label %90, label %93

90:                                               ; preds = %82
  %91 = load ptr, ptr %5, align 8, !tbaa !105
  %92 = getelementptr inbounds nuw %struct.CeltFrame, ptr %91, i32 0, i32 34
  store i32 0, ptr %92, align 4, !tbaa !116
  store i32 1, ptr %13, align 4
  br label %217

93:                                               ; preds = %82
  store i32 0, ptr %7, align 4, !tbaa !26
  br label %94

94:                                               ; preds = %113, %93
  %95 = load i32, ptr %7, align 4, !tbaa !26
  %96 = load ptr, ptr %4, align 8, !tbaa !4
  %97 = getelementptr inbounds nuw %struct.OpusPsyContext, ptr %96, i32 0, i32 24
  %98 = load i32, ptr %97, align 16, !tbaa !100
  %99 = icmp slt i32 %95, %98
  br i1 %99, label %100, label %116

100:                                              ; preds = %94
  %101 = load ptr, ptr %4, align 8, !tbaa !4
  %102 = getelementptr inbounds nuw %struct.OpusPsyContext, ptr %101, i32 0, i32 23
  %103 = load ptr, ptr %102, align 8, !tbaa !99
  %104 = load i32, ptr %7, align 4, !tbaa !26
  %105 = sext i32 %104 to i64
  %106 = getelementptr inbounds i32, ptr %103, i64 %105
  %107 = load i32, ptr %106, align 4, !tbaa !26
  %108 = load i32, ptr %11, align 4, !tbaa !26
  %109 = icmp sge i32 %107, %108
  br i1 %109, label %110, label %112

110:                                              ; preds = %100
  %111 = load i32, ptr %7, align 4, !tbaa !26
  store i32 %111, ptr %9, align 4, !tbaa !26
  br label %116

112:                                              ; preds = %100
  br label %113

113:                                              ; preds = %112
  %114 = load i32, ptr %7, align 4, !tbaa !26
  %115 = add nsw i32 %114, 1
  store i32 %115, ptr %7, align 4, !tbaa !26
  br label %94, !llvm.loop !117

116:                                              ; preds = %110, %94
  %117 = load i32, ptr %9, align 4, !tbaa !26
  store i32 %117, ptr %7, align 4, !tbaa !26
  br label %118

118:                                              ; preds = %154, %116
  %119 = load i32, ptr %7, align 4, !tbaa !26
  %120 = load i32, ptr %10, align 4, !tbaa !26
  %121 = load ptr, ptr %4, align 8, !tbaa !4
  %122 = getelementptr inbounds nuw %struct.OpusPsyContext, ptr %121, i32 0, i32 24
  %123 = load i32, ptr %122, align 16, !tbaa !100
  %124 = load i32, ptr %9, align 4, !tbaa !26
  %125 = sub nsw i32 %123, %124
  %126 = icmp sgt i32 %120, %125
  br i1 %126, label %127, label %133

127:                                              ; preds = %118
  %128 = load ptr, ptr %4, align 8, !tbaa !4
  %129 = getelementptr inbounds nuw %struct.OpusPsyContext, ptr %128, i32 0, i32 24
  %130 = load i32, ptr %129, align 16, !tbaa !100
  %131 = load i32, ptr %9, align 4, !tbaa !26
  %132 = sub nsw i32 %130, %131
  br label %135

133:                                              ; preds = %118
  %134 = load i32, ptr %10, align 4, !tbaa !26
  br label %135

135:                                              ; preds = %133, %127
  %136 = phi i32 [ %132, %127 ], [ %134, %133 ]
  %137 = icmp slt i32 %119, %136
  br i1 %137, label %138, label %157

138:                                              ; preds = %135
  %139 = load ptr, ptr %4, align 8, !tbaa !4
  %140 = getelementptr inbounds nuw %struct.OpusPsyContext, ptr %139, i32 0, i32 23
  %141 = load ptr, ptr %140, align 8, !tbaa !99
  %142 = load i32, ptr %7, align 4, !tbaa !26
  %143 = sext i32 %142 to i64
  %144 = getelementptr inbounds i32, ptr %141, i64 %143
  %145 = load i32, ptr %144, align 4, !tbaa !26
  %146 = load i32, ptr %11, align 4, !tbaa !26
  %147 = load i32, ptr %10, align 4, !tbaa !26
  %148 = add nsw i32 %146, %147
  %149 = icmp slt i32 %145, %148
  br i1 %149, label %150, label %153

150:                                              ; preds = %138
  %151 = load i32, ptr %8, align 4, !tbaa !26
  %152 = add nsw i32 %151, 1
  store i32 %152, ptr %8, align 4, !tbaa !26
  br label %153

153:                                              ; preds = %150, %138
  br label %154

154:                                              ; preds = %153
  %155 = load i32, ptr %7, align 4, !tbaa !26
  %156 = add nsw i32 %155, 1
  store i32 %156, ptr %7, align 4, !tbaa !26
  br label %118, !llvm.loop !118

157:                                              ; preds = %135
  %158 = load i32, ptr %8, align 4, !tbaa !26
  %159 = icmp sgt i32 %158, 0
  %160 = zext i1 %159 to i32
  %161 = load ptr, ptr %5, align 8, !tbaa !105
  %162 = getelementptr inbounds nuw %struct.CeltFrame, ptr %161, i32 0, i32 14
  store i32 %160, ptr %162, align 4, !tbaa !119
  %163 = load ptr, ptr %5, align 8, !tbaa !105
  %164 = getelementptr inbounds nuw %struct.CeltFrame, ptr %163, i32 0, i32 14
  %165 = load i32, ptr %164, align 4, !tbaa !119
  %166 = icmp ne i32 %165, 0
  br i1 %166, label %167, label %176

167:                                              ; preds = %157
  %168 = load ptr, ptr %4, align 8, !tbaa !4
  %169 = getelementptr inbounds nuw %struct.OpusPsyContext, ptr %168, i32 0, i32 18
  %170 = getelementptr inbounds nuw %struct.OpusPacketInfo, ptr %169, i32 0, i32 2
  %171 = load i32, ptr %170, align 8, !tbaa !36
  %172 = add nsw i32 %171, 2
  %173 = shl i32 1, %172
  %174 = mul nsw i32 30, %173
  %175 = sdiv i32 %174, 120
  br label %177

176:                                              ; preds = %157
  br label %177

177:                                              ; preds = %176, %167
  %178 = phi i32 [ %175, %167 ], [ 1, %176 ]
  %179 = load ptr, ptr %5, align 8, !tbaa !105
  %180 = getelementptr inbounds nuw %struct.CeltFrame, ptr %179, i32 0, i32 20
  store i32 %178, ptr %180, align 4, !tbaa !120
  %181 = load ptr, ptr %5, align 8, !tbaa !105
  %182 = getelementptr inbounds nuw %struct.CeltFrame, ptr %181, i32 0, i32 15
  store i32 0, ptr %182, align 8, !tbaa !121
  %183 = load ptr, ptr %5, align 8, !tbaa !105
  %184 = getelementptr inbounds nuw %struct.CeltFrame, ptr %183, i32 0, i32 33
  store float 5.000000e-01, ptr %184, align 16, !tbaa !122
  %185 = load ptr, ptr %5, align 8, !tbaa !105
  %186 = getelementptr inbounds nuw %struct.CeltFrame, ptr %185, i32 0, i32 30
  store i32 2, ptr %186, align 4, !tbaa !123
  %187 = load ptr, ptr %5, align 8, !tbaa !105
  %188 = getelementptr inbounds nuw %struct.CeltFrame, ptr %187, i32 0, i32 31
  store i32 1, ptr %188, align 8, !tbaa !124
  %189 = load ptr, ptr %5, align 8, !tbaa !105
  %190 = getelementptr inbounds nuw %struct.CeltFrame, ptr %189, i32 0, i32 32
  store i32 2, ptr %190, align 4, !tbaa !125
  %191 = load ptr, ptr %5, align 8, !tbaa !105
  %192 = getelementptr inbounds nuw %struct.CeltFrame, ptr %191, i32 0, i32 17
  store i32 0, ptr %192, align 16, !tbaa !126
  %193 = load ptr, ptr %5, align 8, !tbaa !105
  %194 = getelementptr inbounds nuw %struct.CeltFrame, ptr %193, i32 0, i32 24
  store i32 1, ptr %194, align 4, !tbaa !127
  %195 = load ptr, ptr %5, align 8, !tbaa !105
  %196 = getelementptr inbounds nuw %struct.CeltFrame, ptr %195, i32 0, i32 18
  store i32 5, ptr %196, align 4, !tbaa !128
  %197 = load ptr, ptr %5, align 8, !tbaa !105
  %198 = getelementptr inbounds nuw %struct.CeltFrame, ptr %197, i32 0, i32 12
  %199 = load i32, ptr %198, align 4, !tbaa !111
  %200 = load ptr, ptr %5, align 8, !tbaa !105
  %201 = getelementptr inbounds nuw %struct.CeltFrame, ptr %200, i32 0, i32 16
  store i32 %199, ptr %201, align 4, !tbaa !129
  %202 = load ptr, ptr %5, align 8, !tbaa !105
  %203 = getelementptr inbounds nuw %struct.CeltFrame, ptr %202, i32 0, i32 12
  %204 = load i32, ptr %203, align 4, !tbaa !111
  %205 = load ptr, ptr %5, align 8, !tbaa !105
  %206 = getelementptr inbounds nuw %struct.CeltFrame, ptr %205, i32 0, i32 25
  store i32 %204, ptr %206, align 16, !tbaa !130
  %207 = load ptr, ptr %5, align 8, !tbaa !105
  %208 = getelementptr inbounds nuw %struct.CeltFrame, ptr %207, i32 0, i32 26
  store i32 0, ptr %208, align 4, !tbaa !131
  %209 = load ptr, ptr %5, align 8, !tbaa !105
  %210 = getelementptr inbounds nuw %struct.CeltFrame, ptr %209, i32 0, i32 29
  store i32 2, ptr %210, align 16, !tbaa !132
  %211 = load ptr, ptr %5, align 8, !tbaa !105
  %212 = getelementptr inbounds nuw %struct.CeltFrame, ptr %211, i32 0, i32 41
  %213 = getelementptr inbounds [21 x i32], ptr %212, i64 0, i64 0
  call void @llvm.memset.p0.i64(ptr align 16 %213, i8 0, i64 84, i1 false)
  %214 = load ptr, ptr %5, align 8, !tbaa !105
  %215 = getelementptr inbounds nuw %struct.CeltFrame, ptr %214, i32 0, i32 19
  %216 = getelementptr inbounds [21 x i32], ptr %215, i64 0, i64 0
  call void @llvm.memset.p0.i64(ptr align 8 %216, i8 0, i64 84, i1 false)
  store i32 0, ptr %13, align 4
  br label %217

217:                                              ; preds = %177, %90
  call void @llvm.lifetime.end.p0(i64 4, ptr %12) #11
  call void @llvm.lifetime.end.p0(i64 4, ptr %11) #11
  call void @llvm.lifetime.end.p0(i64 4, ptr %10) #11
  call void @llvm.lifetime.end.p0(i64 4, ptr %9) #11
  call void @llvm.lifetime.end.p0(i64 4, ptr %8) #11
  call void @llvm.lifetime.end.p0(i64 4, ptr %7) #11
  %218 = load i32, ptr %13, align 4
  switch i32 %218, label %220 [
    i32 0, label %219
    i32 1, label %219
  ]

219:                                              ; preds = %217, %217
  ret void

220:                                              ; preds = %217
  unreachable
}