; Function Attrs: nofree norecurse nosync nounwind memory(read, argmem: readwrite, inaccessiblemem: none) uwtable
define void @ff_opus_psy_celt_frame_init(ptr noundef readonly captures(none) %0, ptr noundef writeonly captures(none) initializes((33896, 33900), (33908, 33920)) %1, i32 noundef %2) local_unnamed_addr #3 {
  %4 = getelementptr inbounds nuw i8, ptr %0, i64 13736
  %5 = getelementptr inbounds nuw i8, ptr %0, i64 13744
  %6 = load i32, ptr %5, align 8, !tbaa !96
  %7 = shl nuw i32 1, %6
  %8 = shl i32 %2, %6
  %9 = load i32, ptr %4, align 8, !tbaa !91
  %10 = icmp eq i32 %9, 1
  %11 = select i1 %10, i32 17, i32 0
  %12 = getelementptr inbounds nuw i8, ptr %1, i64 33912
  store i32 %11, ptr %12, align 8, !tbaa !105
  %13 = getelementptr inbounds nuw i8, ptr %0, i64 13740
  %14 = load i32, ptr %13, align 4, !tbaa !92
  %15 = zext i32 %14 to i64
  %16 = getelementptr inbounds nuw [0 x i8], ptr @ff_celt_band_end, i64 0, i64 %15
  %17 = load i8, ptr %16, align 1, !tbaa !68
  %18 = zext i8 %17 to i32
  %19 = getelementptr inbounds nuw i8, ptr %1, i64 33916
  store i32 %18, ptr %19, align 4, !tbaa !109
  %20 = load ptr, ptr %0, align 16, !tbaa !26
  %21 = getelementptr inbounds nuw i8, ptr %20, i64 356
  %22 = load i32, ptr %21, align 4, !tbaa !27
  %23 = getelementptr inbounds nuw i8, ptr %1, i64 33896
  store i32 %22, ptr %23, align 8, !tbaa !110
  %24 = getelementptr inbounds nuw i8, ptr %1, i64 33908
  store i32 %6, ptr %24, align 4, !tbaa !111
  %.not88 = icmp eq i32 %6, 31
  br i1 %.not88, label %._crit_edge.thread, label %.lr.ph

._crit_edge.thread:                               ; preds = %3
  %25 = getelementptr inbounds nuw i8, ptr %1, i64 34036
  store i32 1, ptr %25, align 4, !tbaa !112
  br label %41

.lr.ph:                                           ; preds = %3
  %26 = getelementptr inbounds nuw i8, ptr %0, i64 4232
  %27 = sext i32 %8 to i64
  %smax = tail call i32 @llvm.smax.i32(i32 %7, i32 1)
  %wide.trip.count = zext nneg i32 %smax to i64
  br label %28

28:                                               ; preds = %.lr.ph, %28
  %indvars.iv = phi i64 [ 0, %.lr.ph ], [ %indvars.iv.next, %28 ]
  %.073 = phi i32 [ 1, %.lr.ph ], [ %34, %28 ]
  %29 = add nsw i64 %indvars.iv, %27
  %30 = getelementptr inbounds [146 x ptr], ptr %26, i64 0, i64 %29
  %31 = load ptr, ptr %30, align 8, !tbaa !22
  %32 = getelementptr inbounds nuw i8, ptr %31, i64 4
  %33 = load i32, ptr %32, align 4, !tbaa !76
  %34 = and i32 %33, %.073
  %indvars.iv.next = add nuw nsw i64 %indvars.iv, 1
  %exitcond.not = icmp eq i64 %indvars.iv.next, %wide.trip.count
  br i1 %exitcond.not, label %._crit_edge, label %28, !llvm.loop !113

._crit_edge:                                      ; preds = %28
  %35 = getelementptr inbounds nuw i8, ptr %1, i64 34036
  store i32 %34, ptr %35, align 4, !tbaa !112
  %.not = icmp eq i32 %34, 0
  br i1 %.not, label %.preheader, label %41

.preheader:                                       ; preds = %._crit_edge
  %36 = getelementptr inbounds nuw i8, ptr %0, i64 13776
  %37 = load i32, ptr %36, align 16, !tbaa !103
  %38 = icmp sgt i32 %37, 0
  br i1 %38, label %.lr.ph75, label %._crit_edge76

.lr.ph75:                                         ; preds = %.preheader
  %39 = getelementptr inbounds nuw i8, ptr %0, i64 13768
  %40 = load ptr, ptr %39, align 8, !tbaa !102
  %wide.trip.count93 = zext nneg i32 %37 to i64
  br label %43

41:                                               ; preds = %._crit_edge.thread, %._crit_edge
  %42 = getelementptr inbounds nuw i8, ptr %1, i64 34084
  store i32 0, ptr %42, align 4, !tbaa !114
  br label %84

43:                                               ; preds = %.lr.ph75, %46
  %indvars.iv90 = phi i64 [ 0, %.lr.ph75 ], [ %indvars.iv.next91, %46 ]
  %44 = getelementptr inbounds nuw i32, ptr %40, i64 %indvars.iv90
  %45 = load i32, ptr %44, align 4, !tbaa !104
  %.not71 = icmp slt i32 %45, %8
  br i1 %.not71, label %46, label %._crit_edge76.loopexit.split.loop.exit

46:                                               ; preds = %43
  %indvars.iv.next91 = add nuw nsw i64 %indvars.iv90, 1
  %exitcond94.not = icmp eq i64 %indvars.iv.next91, %wide.trip.count93
  br i1 %exitcond94.not, label %._crit_edge76, label %43, !llvm.loop !115

._crit_edge76.loopexit.split.loop.exit:           ; preds = %43
  %47 = trunc nuw nsw i64 %indvars.iv90 to i32
  br label %._crit_edge76

._crit_edge76:                                    ; preds = %46, %._crit_edge76.loopexit.split.loop.exit, %.preheader
  %.067 = phi i32 [ 0, %.preheader ], [ %47, %._crit_edge76.loopexit.split.loop.exit ], [ 0, %46 ]
  %48 = sub nsw i32 %37, %.067
  %. = tail call i32 @llvm.smin.i32(i32 %7, i32 %48)
  %49 = icmp slt i32 %.067, %.
  br i1 %49, label %.lr.ph85, label %._crit_edge86.thread

._crit_edge86.thread:                             ; preds = %._crit_edge76
  %50 = getelementptr inbounds nuw i8, ptr %1, i64 33924
  store i32 0, ptr %50, align 4, !tbaa !116
  br label %67

.lr.ph85:                                         ; preds = %._crit_edge76
  %51 = getelementptr inbounds nuw i8, ptr %0, i64 13768
  %52 = load ptr, ptr %51, align 8, !tbaa !102
  %53 = add nsw i32 %8, %7
  %54 = zext nneg i32 %.067 to i64
  %wide.trip.count98 = zext i32 %. to i64
  br label %55

55:                                               ; preds = %.lr.ph85, %55
  %indvars.iv95 = phi i64 [ %54, %.lr.ph85 ], [ %indvars.iv.next96, %55 ]
  %.06582 = phi i32 [ 0, %.lr.ph85 ], [ %spec.select, %55 ]
  %56 = getelementptr inbounds nuw i32, ptr %52, i64 %indvars.iv95
  %57 = load i32, ptr %56, align 4, !tbaa !104
  %58 = icmp slt i32 %57, %53
  %59 = zext i1 %58 to i32
  %spec.select = add nuw nsw i32 %.06582, %59
  %indvars.iv.next96 = add nuw nsw i64 %indvars.iv95, 1
  %exitcond99.not = icmp eq i64 %indvars.iv.next96, %wide.trip.count98
  br i1 %exitcond99.not, label %._crit_edge86, label %55, !llvm.loop !117

._crit_edge86:                                    ; preds = %55
  %60 = icmp ne i32 %spec.select, 0
  %61 = zext i1 %60 to i32
  %62 = getelementptr inbounds nuw i8, ptr %1, i64 33924
  store i32 %61, ptr %62, align 4, !tbaa !116
  br i1 %60, label %63, label %67

63:                                               ; preds = %._crit_edge86
  %64 = add nsw i32 %6, 2
  %65 = shl i32 30, %64
  %66 = sdiv i32 %65, 120
  br label %67

67:                                               ; preds = %._crit_edge86.thread, %._crit_edge86, %63
  %68 = phi i32 [ %66, %63 ], [ 1, %._crit_edge86 ], [ 1, %._crit_edge86.thread ]
  %69 = getelementptr inbounds nuw i8, ptr %1, i64 34028
  store i32 %68, ptr %69, align 4, !tbaa !118
  %70 = getelementptr inbounds nuw i8, ptr %1, i64 33928
  store i32 0, ptr %70, align 8, !tbaa !119
  %71 = getelementptr inbounds nuw i8, ptr %1, i64 34080
  store float 5.000000e-01, ptr %71, align 16, !tbaa !120
  %72 = getelementptr inbounds nuw i8, ptr %1, i64 34068
  store i32 2, ptr %72, align 4, !tbaa !121
  %73 = getelementptr inbounds nuw i8, ptr %1, i64 34072
  store i32 1, ptr %73, align 8, !tbaa !122
  %74 = getelementptr inbounds nuw i8, ptr %1, i64 34076
  store i32 2, ptr %74, align 4, !tbaa !123
  %75 = getelementptr inbounds nuw i8, ptr %1, i64 33936
  store i32 0, ptr %75, align 16, !tbaa !124
  %76 = getelementptr inbounds nuw i8, ptr %1, i64 34044
  store i32 1, ptr %76, align 4, !tbaa !125
  %77 = getelementptr inbounds nuw i8, ptr %1, i64 33940
  store i32 5, ptr %77, align 4, !tbaa !126
  %78 = getelementptr inbounds nuw i8, ptr %1, i64 33932
  store i32 %18, ptr %78, align 4, !tbaa !127
  %79 = getelementptr inbounds nuw i8, ptr %1, i64 34048
  store i32 %18, ptr %79, align 16, !tbaa !128
  %80 = getelementptr inbounds nuw i8, ptr %1, i64 34052
  store i32 0, ptr %80, align 4, !tbaa !129
  %81 = getelementptr inbounds nuw i8, ptr %1, i64 34064
  store i32 2, ptr %81, align 16, !tbaa !130
  %82 = getelementptr inbounds nuw i8, ptr %1, i64 34432
  tail call void @llvm.memset.p0.i64(ptr noundef nonnull align 16 dereferenceable(84) %82, i8 0, i64 84, i1 false)
  %83 = getelementptr inbounds nuw i8, ptr %1, i64 33944
  tail call void @llvm.memset.p0.i64(ptr noundef nonnull align 8 dereferenceable(84) %83, i8 0, i64 84, i1 false)
  br label %84

84:                                               ; preds = %67, %41
  ret void
}